Certificate:
    Data:
        Version: 3 (0x2)
        Serial Number: 12643587454980392857 (0xaf770bcd3cb10799)
    Signature Algorithm: ecdsa-with-SHA256
        Issuer: C=FI, ST=Uusimaa, L=Helsinki, O=Huawei Technologies Oy, OU=TEE, CN=huawei.com/emailAddress=valentin.manea@huawei.com
        Validity
            Not Before: Jul  2 17:38:38 2015 GMT
            Not After : Jul  1 17:38:38 2016 GMT
        Subject: C=FI, ST=Uusimaa, L=Helsinki, O=Huawei Technologies Oy, OU=TEE, CN=huawei.com/emailAddress=valentin.manea@huawei.com
        Subject Public Key Info:
            Public Key Algorithm: id-ecPublicKey
                Public-Key: (256 bit)
                pub: 
                    04:ce:ee:ae:59:13:b5:c0:65:d4:0e:92:1e:88:60:
                    e1:7b:ca:c2:05:16:42:d4:bd:2d:da:62:57:9f:ac:
                    b8:53:98:04:5c:22:8e:32:c0:fa:0c:d2:4d:5a:46:
                    07:b8:6f:26:4f:4e:24:24:61:b5:c7:fc:59:0a:ca:
                    27:c0:96:ad:80
                ASN1 OID: prime256v1
        X509v3 extensions:
            X509v3 Subject Key Identifier: 
                4E:AA:7D:9B:E9:0D:53:DE:0B:1C:A4:F4:B0:AF:50:EB:87:F8:AE:C2
            X509v3 Authority Key Identifier: 
                keyid:4E:AA:7D:9B:E9:0D:53:DE:0B:1C:A4:F4:B0:AF:50:EB:87:F8:AE:C2

            X509v3 Basic Constraints: 
                CA:TRUE
    Signature Algorithm: ecdsa-with-SHA256
         30:44:02:20:6c:2b:3d:47:39:63:70:86:2c:40:a1:54:f6:32:
         0e:20:83:cb:cf:79:e3:2f:98:3a:2a:35:25:41:10:e6:ac:e0:
         02:20:61:8b:9e:95:9c:3a:38:95:7f:85:f1:a5:b5:c1:64:40:
         a6:f8:05:59:e8:bb:4e:fa:2d:1f:b5:a8:c3:fd:ec:35
-----BEGIN CERTIFICATE-----
MIICiDCCAi+gAwIBAgIJAK93C808sQeZMAoGCCqGSM49BAMCMIGgMQswCQYDVQQG
EwJGSTEQMA4GA1UECAwHVXVzaW1hYTERMA8GA1UEBwwISGVsc2lua2kxHzAdBgNV
BAoMFkh1YXdlaSBUZWNobm9sb2dpZXMgT3kxDDAKBgNVBAsMA1RFRTETMBEGA1UE
AwwKaHVhd2VpLmNvbTEoMCYGCSqGSIb3DQEJARYZdmFsZW50aW4ubWFuZWFAaHVh
d2VpLmNvbTAeFw0xNTA3MDIxNzM4MzhaFw0xNjA3MDExNzM4MzhaMIGgMQswCQYD
VQQGEwJGSTEQMA4GA1UECAwHVXVzaW1hYTERMA8GA1UEBwwISGVsc2lua2kxHzAd
BgNVBAoMFkh1YXdlaSBUZWNobm9sb2dpZXMgT3kxDDAKBgNVBAsMA1RFRTETMBEG
A1UEAwwKaHVhd2VpLmNvbTEoMCYGCSqGSIb3DQEJARYZdmFsZW50aW4ubWFuZWFA
aHVhd2VpLmNvbTBZMBMGByqGSM49AgEGCCqGSM49AwEHA0IABM7urlkTtcBl1A6S
Hohg4XvKwgUWQtS9LdpiV5+suFOYBFwijjLA+gzSTVpGB7hvJk9OJCRhtcf8WQrK
J8CWrYCjUDBOMB0GA1UdDgQWBBROqn2b6Q1T3gscpPSwr1Drh/iuwjAfBgNVHSME
GDAWgBROqn2b6Q1T3gscpPSwr1Drh/iuwjAMBgNVHRMEBTADAQH/MAoGCCqGSM49
BAMCA0cAMEQCIGwrPUc5Y3CGLEChVPYyDiCDy8954y+YOio1JUEQ5qzgAiBhi56V
nDo4lX+F8aW1wWRApvgFWei7TvotH7Wow/3sNQ==
-----END CERTIFICATE-----
